target datalayout = "e-m:e-p270:32:32-p271:32:32-p272:64:64-i64:64-i128:128-f80:128-n8:16:32:64-S128"
target triple = "x86_64-pc-linux-gnu"

@H5P_LST_ATTRIBUTE_ACCESS_ID_g = global i64 -1, align 8
@H5P_LST_ATTRIBUTE_CREATE_ID_g = global i64 -1, align 8
@H5P_LST_DATASET_ACCESS_ID_g = global i64 -1, align 8
@H5P_LST_DATASET_CREATE_ID_g = global i64 -1, align 8
@H5P_LST_DATASET_XFER_ID_g = global i64 -1, align 8
@H5P_LST_DATATYPE_ACCESS_ID_g = global i64 -1, align 8
@H5P_LST_DATATYPE_CREATE_ID_g = global i64 -1, align 8
@H5P_LST_FILE_ACCESS_ID_g = global i64 -1, align 8
@H5P_LST_FILE_CREATE_ID_g = global i64 -1, align 8
@H5P_LST_FILE_MOUNT_ID_g = global i64 -1, align 8
@H5P_LST_GROUP_ACCESS_ID_g = global i64 -1, align 8
@H5P_LST_GROUP_CREATE_ID_g = global i64 -1, align 8
@H5P_LST_LINK_ACCESS_ID_g = global i64 -1, align 8
@H5P_LST_LINK_CREATE_ID_g = global i64 -1, align 8
@H5P_LST_MAP_ACCESS_ID_g = global i64 -1, align 8
@H5P_LST_MAP_CREATE_ID_g = global i64 -1, align 8
@H5P_LST_OBJECT_COPY_ID_g = global i64 -1, align 8
@H5P_LST_REFERENCE_ACCESS_ID_g = global i64 -1, align 8
@H5P_LST_VOL_INITIALIZE_ID_g = global i64 -1, align 8

; Function Attrs: nounwind uwtable
define zeroext i1 @H5P_is_default_plist(i64 noundef %0) #0 {
  %2 = alloca i1, align 1
  %3 = alloca i64, align 8
  %4 = alloca [19 x i64], align 16
  %5 = alloca i64, align 8
  %6 = alloca i32, align 4
  %7 = alloca i64, align 8
  store i64 %0, ptr %3, align 8, !tbaa !11
  call void @llvm.lifetime.start.p0(i64 152, ptr %4) #8
  %8 = load i64, ptr @H5P_LST_FILE_CREATE_ID_g, align 8, !tbaa !11
  store i64 %8, ptr %4, align 8, !tbaa !11
  %9 = getelementptr inbounds i64, ptr %4, i64 1
  %10 = load i64, ptr @H5P_LST_FILE_ACCESS_ID_g, align 8, !tbaa !11
  store i64 %10, ptr %9, align 8, !tbaa !11
  %11 = getelementptr inbounds i64, ptr %4, i64 2
  %12 = load i64, ptr @H5P_LST_DATASET_CREATE_ID_g, align 8, !tbaa !11
  store i64 %12, ptr %11, align 8, !tbaa !11
  %13 = getelementptr inbounds i64, ptr %4, i64 3
  %14 = load i64, ptr @H5P_LST_DATASET_ACCESS_ID_g, align 8, !tbaa !11
  store i64 %14, ptr %13, align 8, !tbaa !11
  %15 = getelementptr inbounds i64, ptr %4, i64 4
  %16 = load i64, ptr @H5P_LST_DATASET_XFER_ID_g, align 8, !tbaa !11
  store i64 %16, ptr %15, align 8, !tbaa !11
  %17 = getelementptr inbounds i64, ptr %4, i64 5
  %18 = load i64, ptr @H5P_LST_FILE_MOUNT_ID_g, align 8, !tbaa !11
  store i64 %18, ptr %17, align 8, !tbaa !11
  %19 = getelementptr inbounds i64, ptr %4, i64 6
  %20 = load i64, ptr @H5P_LST_GROUP_CREATE_ID_g, align 8, !tbaa !11
  store i64 %20, ptr %19, align 8, !tbaa !11
  %21 = getelementptr inbounds i64, ptr %4, i64 7
  %22 = load i64, ptr @H5P_LST_GROUP_ACCESS_ID_g, align 8, !tbaa !11
  store i64 %22, ptr %21, align 8, !tbaa !11
  %23 = getelementptr inbounds i64, ptr %4, i64 8
  %24 = load i64, ptr @H5P_LST_DATATYPE_CREATE_ID_g, align 8, !tbaa !11
  store i64 %24, ptr %23, align 8, !tbaa !11
  %25 = getelementptr inbounds i64, ptr %4, i64 9
  %26 = load i64, ptr @H5P_LST_DATATYPE_ACCESS_ID_g, align 8, !tbaa !11
  store i64 %26, ptr %25, align 8, !tbaa !11
  %27 = getelementptr inbounds i64, ptr %4, i64 10
  %28 = load i64, ptr @H5P_LST_MAP_CREATE_ID_g, align 8, !tbaa !11
  store i64 %28, ptr %27, align 8, !tbaa !11
  %29 = getelementptr inbounds i64, ptr %4, i64 11
  %30 = load i64, ptr @H5P_LST_MAP_ACCESS_ID_g, align 8, !tbaa !11
  store i64 %30, ptr %29, align 8, !tbaa !11
  %31 = getelementptr inbounds i64, ptr %4, i64 12
  %32 = load i64, ptr @H5P_LST_ATTRIBUTE_CREATE_ID_g, align 8, !tbaa !11
  store i64 %32, ptr %31, align 8, !tbaa !11
  %33 = getelementptr inbounds i64, ptr %4, i64 13
  %34 = load i64, ptr @H5P_LST_ATTRIBUTE_ACCESS_ID_g, align 8, !tbaa !11
  store i64 %34, ptr %33, align 8, !tbaa !11
  %35 = getelementptr inbounds i64, ptr %4, i64 14
  %36 = load i64, ptr @H5P_LST_OBJECT_COPY_ID_g, align 8, !tbaa !11
  store i64 %36, ptr %35, align 8, !tbaa !11
  %37 = getelementptr inbounds i64, ptr %4, i64 15
  %38 = load i64, ptr @H5P_LST_LINK_CREATE_ID_g, align 8, !tbaa !11
  store i64 %38, ptr %37, align 8, !tbaa !11
  %39 = getelementptr inbounds i64, ptr %4, i64 16
  %40 = load i64, ptr @H5P_LST_LINK_ACCESS_ID_g, align 8, !tbaa !11
  store i64 %40, ptr %39, align 8, !tbaa !11
  %41 = getelementptr inbounds i64, ptr %4, i64 17
  %42 = load i64, ptr @H5P_LST_VOL_INITIALIZE_ID_g, align 8, !tbaa !11
  store i64 %42, ptr %41, align 8, !tbaa !11
  %43 = getelementptr inbounds i64, ptr %4, i64 18
  %44 = load i64, ptr @H5P_LST_REFERENCE_ACCESS_ID_g, align 8, !tbaa !11
  store i64 %44, ptr %43, align 8, !tbaa !11
  call void @llvm.lifetime.start.p0(i64 8, ptr %5) #8
  store i64 19, ptr %5, align 8, !tbaa !11
  %45 = load i64, ptr %3, align 8, !tbaa !11
  %46 = icmp eq i64 %45, 0
  br i1 %46, label %47, label %48

47:                                               ; preds = %1
  store i1 true, ptr %2, align 1
  store i32 1, ptr %6, align 4
  br label %68

48:                                               ; preds = %1
  call void @llvm.lifetime.start.p0(i64 8, ptr %7) #8
  store i64 0, ptr %7, align 8, !tbaa !11
  br label %49

49:                                               ; preds = %62, %48
  %50 = load i64, ptr %7, align 8, !tbaa !11
  %51 = load i64, ptr %5, align 8, !tbaa !11
  %52 = icmp ult i64 %50, %51
  br i1 %52, label %54, label %53

53:                                               ; preds = %49
  store i32 2, ptr %6, align 4
  br label %65

54:                                               ; preds = %49
  %55 = load i64, ptr %3, align 8, !tbaa !11
  %56 = load i64, ptr %7, align 8, !tbaa !11
  %57 = getelementptr inbounds nuw [19 x i64], ptr %4, i64 0, i64 %56
  %58 = load i64, ptr %57, align 8, !tbaa !11
  %59 = icmp eq i64 %55, %58
  br i1 %59, label %60, label %61

60:                                               ; preds = %54
  store i1 true, ptr %2, align 1
  store i32 1, ptr %6, align 4
  br label %65

61:                                               ; preds = %54
  br label %62

62:                                               ; preds = %61
  %63 = load i64, ptr %7, align 8, !tbaa !11
  %64 = add i64 %63, 1
  store i64 %64, ptr %7, align 8, !tbaa !11
  br label %49, !llvm.loop !126

65:                                               ; preds = %60, %53
  call void @llvm.lifetime.end.p0(i64 8, ptr %7) #8
  %66 = load i32, ptr %6, align 4
  switch i32 %66, label %68 [
    i32 2, label %67
  ]

67:                                               ; preds = %65
  store i1 false, ptr %2, align 1
  store i32 1, ptr %6, align 4
  br label %68

68:                                               ; preds = %67, %65, %47
  call void @llvm.lifetime.end.p0(i64 8, ptr %5) #8
  call void @llvm.lifetime.end.p0(i64 152, ptr %4) #8
  %69 = load i1, ptr %2, align 1
  ret i1 %69
}