; Function Attrs: nofree norecurse nosync nounwind memory(read, argmem: none, inaccessiblemem: none) uwtable
define noundef zeroext i1 @H5P_is_default_plist(i64 noundef %0) local_unnamed_addr #6 {
  %2 = alloca [19 x i64], align 16
  call void @llvm.lifetime.start.p0(i64 152, ptr nonnull %2) #14
  %3 = load i64, ptr @H5P_LST_FILE_CREATE_ID_g, align 8, !tbaa !10
  store i64 %3, ptr %2, align 16, !tbaa !10
  %4 = getelementptr inbounds nuw i8, ptr %2, i64 8
  %5 = load i64, ptr @H5P_LST_FILE_ACCESS_ID_g, align 8, !tbaa !10
  store i64 %5, ptr %4, align 8, !tbaa !10
  %6 = getelementptr inbounds nuw i8, ptr %2, i64 16
  %7 = load i64, ptr @H5P_LST_DATASET_CREATE_ID_g, align 8, !tbaa !10
  store i64 %7, ptr %6, align 16, !tbaa !10
  %8 = getelementptr inbounds nuw i8, ptr %2, i64 24
  %9 = load i64, ptr @H5P_LST_DATASET_ACCESS_ID_g, align 8, !tbaa !10
  store i64 %9, ptr %8, align 8, !tbaa !10
  %10 = getelementptr inbounds nuw i8, ptr %2, i64 32
  %11 = load i64, ptr @H5P_LST_DATASET_XFER_ID_g, align 8, !tbaa !10
  store i64 %11, ptr %10, align 16, !tbaa !10
  %12 = getelementptr inbounds nuw i8, ptr %2, i64 40
  %13 = load i64, ptr @H5P_LST_FILE_MOUNT_ID_g, align 8, !tbaa !10
  store i64 %13, ptr %12, align 8, !tbaa !10
  %14 = getelementptr inbounds nuw i8, ptr %2, i64 48
  %15 = load i64, ptr @H5P_LST_GROUP_CREATE_ID_g, align 8, !tbaa !10
  store i64 %15, ptr %14, align 16, !tbaa !10
  %16 = getelementptr inbounds nuw i8, ptr %2, i64 56
  %17 = load i64, ptr @H5P_LST_GROUP_ACCESS_ID_g, align 8, !tbaa !10
  store i64 %17, ptr %16, align 8, !tbaa !10
  %18 = getelementptr inbounds nuw i8, ptr %2, i64 64
  %19 = load i64, ptr @H5P_LST_DATATYPE_CREATE_ID_g, align 8, !tbaa !10
  store i64 %19, ptr %18, align 16, !tbaa !10
  %20 = getelementptr inbounds nuw i8, ptr %2, i64 72
  %21 = load i64, ptr @H5P_LST_DATATYPE_ACCESS_ID_g, align 8, !tbaa !10
  store i64 %21, ptr %20, align 8, !tbaa !10
  %22 = getelementptr inbounds nuw i8, ptr %2, i64 80
  %23 = load i64, ptr @H5P_LST_MAP_CREATE_ID_g, align 8, !tbaa !10
  store i64 %23, ptr %22, align 16, !tbaa !10
  %24 = getelementptr inbounds nuw i8, ptr %2, i64 88
  %25 = load i64, ptr @H5P_LST_MAP_ACCESS_ID_g, align 8, !tbaa !10
  store i64 %25, ptr %24, align 8, !tbaa !10
  %26 = getelementptr inbounds nuw i8, ptr %2, i64 96
  %27 = load i64, ptr @H5P_LST_ATTRIBUTE_CREATE_ID_g, align 8, !tbaa !10
  store i64 %27, ptr %26, align 16, !tbaa !10
  %28 = getelementptr inbounds nuw i8, ptr %2, i64 104
  %29 = load i64, ptr @H5P_LST_ATTRIBUTE_ACCESS_ID_g, align 8, !tbaa !10
  store i64 %29, ptr %28, align 8, !tbaa !10
  %30 = getelementptr inbounds nuw i8, ptr %2, i64 112
  %31 = load i64, ptr @H5P_LST_OBJECT_COPY_ID_g, align 8, !tbaa !10
  store i64 %31, ptr %30, align 16, !tbaa !10
  %32 = getelementptr inbounds nuw i8, ptr %2, i64 120
  %33 = load i64, ptr @H5P_LST_LINK_CREATE_ID_g, align 8, !tbaa !10
  store i64 %33, ptr %32, align 8, !tbaa !10
  %34 = getelementptr inbounds nuw i8, ptr %2, i64 128
  %35 = load i64, ptr @H5P_LST_LINK_ACCESS_ID_g, align 8, !tbaa !10
  store i64 %35, ptr %34, align 16, !tbaa !10
  %36 = getelementptr inbounds nuw i8, ptr %2, i64 136
  %37 = load i64, ptr @H5P_LST_VOL_INITIALIZE_ID_g, align 8, !tbaa !10
  store i64 %37, ptr %36, align 8, !tbaa !10
  %38 = getelementptr inbounds nuw i8, ptr %2, i64 144
  %39 = load i64, ptr @H5P_LST_REFERENCE_ACCESS_ID_g, align 8, !tbaa !10
  store i64 %39, ptr %38, align 16, !tbaa !10
  %40 = icmp eq i64 %0, 0
  br i1 %40, label %.loopexit, label %.preheader

.preheader:                                       ; preds = %1, %.preheader
  %.010 = phi i64 [ %44, %.preheader ], [ 0, %1 ]
  %41 = getelementptr inbounds nuw [19 x i64], ptr %2, i64 0, i64 %.010
  %42 = load i64, ptr %41, align 8, !tbaa !10
  %43 = icmp eq i64 %0, %42
  %44 = add nuw nsw i64 %.010, 1
  %exitcond.not = icmp eq i64 %44, 19
  %or.cond = select i1 %43, i1 true, i1 %exitcond.not
  br i1 %or.cond, label %.loopexit, label %.preheader, !llvm.loop !114

.loopexit:                                        ; preds = %.preheader, %1
  %.08 = phi i1 [ true, %1 ], [ %43, %.preheader ]
  call void @llvm.lifetime.end.p0(i64 152, ptr nonnull %2) #14
  ret i1 %.08
}